target datalayout = "e-m:e-p270:32:32-p271:32:32-p272:64:64-i64:64-i128:128-f80:128-n8:16:32:64-S128"
target triple = "x86_64-pc-linux-gnu"

%struct.mbox_ctx = type { ptr, ptr, ptr, ptr, i32, ptr }
%struct.cli_ctx_tag = type { ptr, ptr, ptr, ptr, ptr, ptr, ptr, i64, ptr, i32, i32, ptr, i32, i32, ptr, [16 x i8], ptr, ptr, ptr, ptr, ptr, ptr, %struct.timeval, i8, i8 }
%struct.timeval = type { i64, i64 }

@.str.2 = private unnamed_addr constant [6 x i8] c"From \00", align 1
@.str.296 = private unnamed_addr constant [7 x i8] c">From \00", align 1

; Function Attrs: nounwind uwtable
define internal zeroext i1 @isBounceStart(ptr noundef %0, ptr noundef %1) #0 {
  %3 = alloca i1, align 1
  %4 = alloca ptr, align 8
  %5 = alloca ptr, align 8
  %6 = alloca i64, align 8
  %7 = alloca i32, align 4
  %8 = alloca i32, align 4
  store ptr %0, ptr %4, align 8
  store ptr %1, ptr %5, align 8
  %9 = load ptr, ptr %5, align 8
  %10 = icmp eq ptr %9, null
  br i1 %10, label %11, label %12

11:                                               ; preds = %2
  store i1 false, ptr %3, align 1
  br label %89

12:                                               ; preds = %2
  %13 = load ptr, ptr %5, align 8
  %14 = load i8, ptr %13, align 1
  %15 = sext i8 %14 to i32
  %16 = icmp eq i32 %15, 0
  br i1 %16, label %17, label %18

17:                                               ; preds = %12
  store i1 false, ptr %3, align 1
  br label %89

18:                                               ; preds = %12
  %19 = load ptr, ptr %5, align 8
  %20 = call i64 @strlen(ptr noundef %19) #9
  store i64 %20, ptr %6, align 8
  %21 = load i64, ptr %6, align 8
  %22 = icmp ult i64 %21, 6
  br i1 %22, label %26, label %23

23:                                               ; preds = %18
  %24 = load i64, ptr %6, align 8
  %25 = icmp uge i64 %24, 72
  br i1 %25, label %26, label %27

26:                                               ; preds = %23, %18
  store i1 false, ptr %3, align 1
  br label %89

27:                                               ; preds = %23
  %28 = load ptr, ptr %5, align 8
  %29 = call i32 @memcmp(ptr noundef %28, ptr noundef @.str.2, i64 noundef 5) #9
  %30 = icmp eq i32 %29, 0
  br i1 %30, label %35, label %31

31:                                               ; preds = %27
  %32 = load ptr, ptr %5, align 8
  %33 = call i32 @memcmp(ptr noundef %32, ptr noundef @.str.296, i64 noundef 6) #9
  %34 = icmp eq i32 %33, 0
  br i1 %34, label %35, label %79

35:                                               ; preds = %31, %27
  store i32 0, ptr %7, align 4
  store i32 0, ptr %8, align 4
  %36 = load ptr, ptr %5, align 8
  %37 = getelementptr inbounds i8, ptr %36, i64 4
  store ptr %37, ptr %5, align 8
  br label %38

38:                                               ; preds = %64, %35
  %39 = load ptr, ptr %5, align 8
  %40 = load i8, ptr %39, align 1
  %41 = sext i8 %40 to i32
  %42 = icmp eq i32 %41, 32
  br i1 %42, label %43, label %46

43:                                               ; preds = %38
  %44 = load i32, ptr %7, align 4
  %45 = add nsw i32 %44, 1
  store i32 %45, ptr %7, align 4
  br label %63

46:                                               ; preds = %38
  %47 = call ptr @__ctype_b_loc() #10
  %48 = load ptr, ptr %47, align 8
  %49 = load ptr, ptr %5, align 8
  %50 = load i8, ptr %49, align 1
  %51 = sext i8 %50 to i32
  %52 = and i32 %51, 255
  %53 = sext i32 %52 to i64
  %54 = getelementptr inbounds i16, ptr %48, i64 %53
  %55 = load i16, ptr %54, align 2
  %56 = zext i16 %55 to i32
  %57 = and i32 %56, 2048
  %58 = icmp ne i32 %57, 0
  br i1 %58, label %59, label %62

59:                                               ; preds = %46
  %60 = load i32, ptr %8, align 4
  %61 = add nsw i32 %60, 1
  store i32 %61, ptr %8, align 4
  br label %62

62:                                               ; preds = %59, %46
  br label %63

63:                                               ; preds = %62, %43
  br label %64

64:                                               ; preds = %63
  %65 = load ptr, ptr %5, align 8
  %66 = getelementptr inbounds i8, ptr %65, i32 1
  store ptr %66, ptr %5, align 8
  %67 = load i8, ptr %66, align 1
  %68 = sext i8 %67 to i32
  %69 = icmp ne i32 %68, 0
  br i1 %69, label %38, label %70

70:                                               ; preds = %64
  %71 = load i32, ptr %7, align 4
  %72 = icmp slt i32 %71, 6
  br i1 %72, label %73, label %74

73:                                               ; preds = %70
  store i1 false, ptr %3, align 1
  br label %89

74:                                               ; preds = %70
  %75 = load i32, ptr %8, align 4
  %76 = icmp slt i32 %75, 11
  br i1 %76, label %77, label %78

77:                                               ; preds = %74
  store i1 false, ptr %3, align 1
  br label %89

78:                                               ; preds = %74
  store i1 true, ptr %3, align 1
  br label %89

79:                                               ; preds = %31
  %80 = load ptr, ptr %5, align 8
  %81 = load i64, ptr %6, align 8
  %82 = load ptr, ptr %4, align 8
  %83 = getelementptr inbounds %struct.mbox_ctx, ptr %82, i32 0, i32 3
  %84 = load ptr, ptr %83, align 8
  %85 = getelementptr inbounds %struct.cli_ctx_tag, ptr %84, i32 0, i32 6
  %86 = load ptr, ptr %85, align 8
  %87 = call i32 @cli_compare_ftm_file(ptr noundef %80, i64 noundef %81, ptr noundef %86)
  %88 = icmp eq i32 %87, 561
  store i1 %88, ptr %3, align 1
  br label %89

89:                                               ; preds = %79, %78, %77, %73, %26, %17, %11
  %90 = load i1, ptr %3, align 1
  ret i1 %90
}