; Function Attrs: nounwind uwtable
define internal fastcc zeroext i1 @isBounceStart(ptr nocapture noundef readonly %0, ptr noundef %1) unnamed_addr #0 {
  %3 = icmp eq ptr %1, null
  br i1 %3, label %43, label %4

4:                                                ; preds = %2
  %5 = load i8, ptr %1, align 1
  %6 = icmp eq i8 %5, 0
  br i1 %6, label %43, label %7

7:                                                ; preds = %4
  %8 = tail call i64 @strlen(ptr noundef nonnull dereferenceable(1) %1) #21
  %9 = add i64 %8, -72
  %or.cond = icmp ult i64 %9, -66
  br i1 %or.cond, label %43, label %10

10:                                               ; preds = %7
  %bcmp = tail call i32 @bcmp(ptr noundef nonnull dereferenceable(5) %1, ptr noundef nonnull dereferenceable(5) @.str.2, i64 5)
  %11 = icmp eq i32 %bcmp, 0
  br i1 %11, label %14, label %12

12:                                               ; preds = %10
  %bcmp26 = tail call i32 @bcmp(ptr noundef nonnull dereferenceable(6) %1, ptr noundef nonnull dereferenceable(6) @.str.296, i64 6)
  %13 = icmp eq i32 %bcmp26, 0
  br i1 %13, label %14, label %36

14:                                               ; preds = %12, %10
  %15 = getelementptr inbounds i8, ptr %1, i64 4
  %.pr = load i8, ptr %15, align 1
  br label %16

16:                                               ; preds = %30, %14
  %17 = phi i8 [ %32, %30 ], [ %.pr, %14 ]
  %.022 = phi ptr [ %31, %30 ], [ %15, %14 ]
  %.019 = phi i32 [ %.120, %30 ], [ 0, %14 ]
  %.0 = phi i32 [ %.1, %30 ], [ 0, %14 ]
  %18 = icmp eq i8 %17, 32
  br i1 %18, label %19, label %21

19:                                               ; preds = %16
  %20 = add nsw i32 %.019, 1
  br label %30

21:                                               ; preds = %16
  %22 = tail call ptr @__ctype_b_loc() #22
  %23 = load ptr, ptr %22, align 8
  %24 = zext i8 %17 to i64
  %25 = getelementptr inbounds i16, ptr %23, i64 %24
  %26 = load i16, ptr %25, align 2
  %27 = lshr i16 %26, 11
  %28 = and i16 %27, 1
  %29 = zext nneg i16 %28 to i32
  %spec.select = add i32 %.0, %29
  br label %30

30:                                               ; preds = %21, %19
  %.120 = phi i32 [ %20, %19 ], [ %.019, %21 ]
  %.1 = phi i32 [ %.0, %19 ], [ %spec.select, %21 ]
  %31 = getelementptr inbounds i8, ptr %.022, i64 1
  %32 = load i8, ptr %31, align 1
  %.not27 = icmp eq i8 %32, 0
  br i1 %.not27, label %33, label %16

33:                                               ; preds = %30
  %34 = icmp sgt i32 %.120, 5
  %35 = icmp sgt i32 %.1, 10
  %spec.select28 = select i1 %34, i1 %35, i1 false
  br label %43

36:                                               ; preds = %12
  %37 = getelementptr inbounds i8, ptr %0, i64 24
  %38 = load ptr, ptr %37, align 8
  %39 = getelementptr inbounds i8, ptr %38, i64 48
  %40 = load ptr, ptr %39, align 8
  %41 = tail call i32 @cli_compare_ftm_file(ptr noundef nonnull %1, i64 noundef %8, ptr noundef %40) #19
  %42 = icmp eq i32 %41, 561
  br label %43

43:                                               ; preds = %33, %7, %4, %2, %36
  %.021 = phi i1 [ %42, %36 ], [ false, %2 ], [ false, %4 ], [ false, %7 ], [ %spec.select28, %33 ]
  ret i1 %.021
}